(dp0
S'k_damp'
p1
cnumpy.core.multiarray
scalar
p2
(cnumpy
dtype
p3
(S'f8'
p4
I0
I1
tp5
Rp6
(I3
S'<'
p7
NNNI-1
I-1
I0
tp8
bS'\xe0\x1bH\x809\xcf\xa9?'
p9
tp10
Rp11
sS'J_tot'
p12
g2
(g6
S'?\xa3)\xda6\x13\xde?'
p13
tp14
Rp15
s.