(dp0
S'k_damp_spec'
p1
csympy.core.numbers
Float
p2
((I0
S'1d55df566a3f75L'
p3
I-57
I53
tp4
tp5
Rp6
(dp7
S'_prec'
p8
I53
sbsS'from_spec'
p9
(dp10
csympy.core.symbol
Symbol
p11
(S'V_s'
p12
tp13
Rp14
(dp15
S'_assumptions'
p16
ccopy_reg
_reconstructor
p17
(csympy.core.assumptions
StdFactKB
p18
c__builtin__
dict
p19
(dp20
S'real'
p21
NsS'polar'
p22
NsS'commutative'
p23
I01
sS'antihermitian'
p24
NsS'nonpositive'
p25
NsS'positive'
p26
NsS'negative'
p27
NsS'nonnegative'
p28
NsS'hermitian'
p29
NsS'zero'
p30
NsS'bounded'
p31
NsS'rational'
p32
NsS'imaginary'
p33
NsS'complex'
p34
NsS'irrational'
p35
Nstp36
Rp37
sbI12
sg11
(S'I_nl'
p38
tp39
Rp40
(dp41
g16
g17
(g18
g19
(dp42
g21
Nsg22
Nsg23
I01
sg24
Nsg25
Nsg26
Nsg27
Nsg28
Nsg29
Nsg30
Nsg31
Nsg32
Nsg33
Nsg34
Nsg35
Nstp43
Rp44
sbF0.3
sg11
(S'tau_s'
p45
tp46
Rp47
(dp48
g16
g17
(g18
g19
(dp49
g22
Nsg30
Nsg23
I01
sg26
Nsg27
Nsg28
Nstp50
Rp51
sbF1.2
sg11
(S'nu'
p52
tp53
Rp54
(dp55
g16
g17
(g18
g19
(dp56
g21
Nsg22
Nsg35
Nsg24
Nsg25
NsS'unbounded'
p57
Nsg29
Nsg31
NsS'integer'
p58
Nsg33
NsS'odd'
p59
NsS'even'
p60
Nsg23
I01
sg30
Nsg26
Nsg27
Nsg28
Nsg34
Nsg32
Nstp61
Rp62
sbg2
((I0
S'e14bd1f3d3d2dL'
p63
I-60
I52
tp64
tp65
Rp66
(dp67
g8
I53
sbsg11
(S'R'
p68
tp69
Rp70
(dp71
g16
g17
(g18
g19
(dp72
g21
Nsg22
Nsg35
Nsg24
Nsg25
Nsg57
Nsg29
Nsg31
Nsg58
Nsg33
Nsg34
Nsg23
I01
sg30
Nsg26
Nsg27
Nsg28
NsS'infinitesimal'
p73
Nsg32
Nstp74
Rp75
sbF2.4
sg11
(S'I_s'
p76
tp77
Rp78
(dp79
g16
g17
(g18
g19
(dp80
g21
Nsg22
Nsg35
Nsg24
Nsg25
Nsg57
Nsg29
Nsg31
Nsg58
Nsg33
Nsg34
Nsg59
Nsg60
Nsg23
I01
sg30
Nsg26
Nsg27
Nsg28
Nsg73
Nsg32
Nstp81
Rp82
sbI5
sg11
(S'k_b'
p83
tp84
Rp85
(dp86
g16
g17
(g18
g19
(dp87
g21
Nsg22
Nsg23
I01
sg24
Nsg25
Nsg26
Nsg27
Nsg28
Nsg29
Nsg30
Nsg31
Nsg32
Nsg33
Nsg34
Nsg35
Nstp88
Rp89
sbg2
((I0
S'113c0ccf919ee1L'
p90
I-53
I53
tp91
tp92
Rp93
(dp94
g8
I53
sbsg11
(S'omega_nl'
p95
tp96
Rp97
(dp98
g16
g17
(g18
g19
(dp99
g21
Nsg22
Nsg35
Nsg24
Nsg25
Nsg57
Nsg29
Nsg31
Nsg58
Nsg33
Nsg34
Nsg23
I01
sg30
Nsg26
Nsg27
Nsg28
Nsg73
Nsg32
Nstp100
Rp101
sbF20.943951023931955
sg11
(S'k_tau'
p102
tp103
Rp104
(dp105
g16
g17
(g18
g19
(dp106
g21
Nsg22
Nsg23
I01
sg24
Nsg25
Nsg26
Nsg27
Nsg28
Nsg29
Nsg30
Nsg31
Nsg32
Nsg33
Nsg34
Nsg35
Nstp107
Rp108
sbg2
((I0
S'3d70a3d70a3d7L'
p109
I-52
I50
tp110
tp111
Rp112
(dp113
g8
I53
sbsg11
(S'V_nl'
p114
tp115
Rp116
(dp117
g16
g17
(g18
g19
(dp118
g22
Nsg30
Nsg23
I01
sg26
Nsg27
Nsg28
Nstp119
Rp120
sbI12
ssS'k_emf_over_J'
p121
cnumpy.core.multiarray
_reconstruct
p122
(cnumpy
ndarray
p123
(I0
tp124
S'b'
p125
tp126
Rp127
(I1
(I1
tp128
cnumpy
dtype
p129
(S'f8'
p130
I0
I1
tp131
Rp132
(I3
S'<'
p133
NNNI-1
I-1
I0
tp134
bI00
S"s\xab'\xc8tv1@"
p135
tp136
bsS'k_emf_wheel_over_J'
p137
g122
(g123
(I0
tp138
g125
tp139
Rp140
(I1
(I1
tp141
g132
I00
S':\xb3\x89\xc8\x85\x97&@'
p142
tp143
bsS'k_damp_wheel_over_J'
p144
g122
(g123
(I0
tp145
g125
tp146
Rp147
(I1
(I1
tp148
g132
I00
S"'\xcf\xd6?\xda\x174@"
p149
tp150
bsS'k_emf_spec'
p151
g2
((I0
S'ccccccccccccdL'
p152
I-55
I52
tp153
tp154
Rp155
(dp156
g8
I53
sbsS'k_damp_over_J'
p157
g122
(g123
(I0
tp158
g125
tp159
Rp160
(I1
(I1
tp161
g132
I00
S'I\xc6y}\xb21#@'
p162
tp163
bs.